target datalayout = "e-m:e-p270:32:32-p271:32:32-p272:64:64-i64:64-i128:128-f80:128-n8:16:32:64-S128"
target triple = "x86_64-pc-linux-gnu"

%struct.PatternInfoArray = type { ptr, i64 }
%struct.AmcheckOptions = type { i8, i8, i8, i8, i8, i8, i32, i8, ptr, %struct.PatternInfoArray, %struct.PatternInfoArray, i8, i8, i8, i8, i8, i8, i8, i64, i64, ptr, i8, i8, i8, i8, i8 }
%struct.DatabaseInfo = type { ptr, ptr, i8 }
%struct.RelationInfo = type { ptr, i32, i8, ptr, ptr, i32, i32, ptr }

@progname = internal global ptr null, align 8
@.str.57 = private unnamed_addr constant [14 x i8] c"Query was: %s\00", align 1
@progress_since_last_stderr = internal global i8 0, align 1
@stderr = external global ptr, align 8
@.str.68 = private unnamed_addr constant [2 x i8] c"\0A\00", align 1
@all_checks_pass = internal global i8 1, align 1
@.str.92 = private unnamed_addr constant [3 x i8] c"%s\00", align 1
@.str.93 = private unnamed_addr constant [15 x i8] c"query was: %s\0A\00", align 1
@.str.95 = private unnamed_addr constant [6 x i8] c"FATAL\00", align 1
@.str.96 = private unnamed_addr constant [6 x i8] c"PANIC\00", align 1
@.str.97 = private unnamed_addr constant [87 x i8] c"btree index \22%s.%s.%s\22: btree checking function returned unexpected number of rows: %d\00", align 1
@.str.98 = private unnamed_addr constant [44 x i8] c"Are %s's and amcheck's versions compatible?\00", align 1
@.str.99 = private unnamed_addr constant [25 x i8] c"btree index \22%s.%s.%s\22:\0A\00", align 1

; Function Attrs: nounwind uwtable
define internal zeroext i1 @should_processing_continue(ptr noundef %0) #0 {
  %2 = alloca i1, align 1
  %3 = alloca ptr, align 8
  %4 = alloca ptr, align 8
  %5 = alloca i32, align 4
  store ptr %0, ptr %3, align 8
  call void @llvm.lifetime.start.p0(i64 8, ptr %4) #10
  %6 = load ptr, ptr %3, align 8
  %7 = call i32 @PQresultStatus(ptr noundef %6)
  switch i32 %7, label %27 [
    i32 1, label %8
    i32 2, label %8
    i32 6, label %8
    i32 7, label %9
    i32 5, label %26
    i32 0, label %26
    i32 3, label %26
    i32 4, label %26
    i32 8, label %26
    i32 9, label %26
    i32 10, label %26
    i32 11, label %26
    i32 12, label %26
  ]

8:                                                ; preds = %1, %1, %1
  br label %27

9:                                                ; preds = %1
  %10 = load ptr, ptr %3, align 8
  %11 = call ptr @PQresultErrorField(ptr noundef %10, i32 noundef 86)
  store ptr %11, ptr %4, align 8
  %12 = load ptr, ptr %4, align 8
  %13 = icmp eq ptr %12, null
  br i1 %13, label %14, label %15

14:                                               ; preds = %9
  store i1 false, ptr %2, align 1
  store i32 1, ptr %5, align 4
  br label %28

15:                                               ; preds = %9
  %16 = load ptr, ptr %4, align 8
  %17 = call i32 @strcmp(ptr noundef %16, ptr noundef @.str.95) #13
  %18 = icmp eq i32 %17, 0
  br i1 %18, label %19, label %20

19:                                               ; preds = %15
  store i1 false, ptr %2, align 1
  store i32 1, ptr %5, align 4
  br label %28

20:                                               ; preds = %15
  %21 = load ptr, ptr %4, align 8
  %22 = call i32 @strcmp(ptr noundef %21, ptr noundef @.str.96) #13
  %23 = icmp eq i32 %22, 0
  br i1 %23, label %24, label %25

24:                                               ; preds = %20
  store i1 false, ptr %2, align 1
  store i32 1, ptr %5, align 4
  br label %28

25:                                               ; preds = %20
  br label %27

26:                                               ; preds = %1, %1, %1, %1, %1, %1, %1, %1, %1
  store i1 false, ptr %2, align 1
  store i32 1, ptr %5, align 4
  br label %28

27:                                               ; preds = %1, %25, %8
  store i1 true, ptr %2, align 1
  store i32 1, ptr %5, align 4
  br label %28

28:                                               ; preds = %27, %26, %24, %19, %14
  call void @llvm.lifetime.end.p0(i64 8, ptr %4) #10
  %29 = load i1, ptr %2, align 1
  ret i1 %29
}

; Function Attrs: nounwind uwtable
define internal zeroext i1 @verify_btree_slot_handler(ptr noundef %0, ptr noundef %1, ptr noundef %2) #0 {
  %4 = alloca ptr, align 8
  %5 = alloca ptr, align 8
  %6 = alloca ptr, align 8
  %7 = alloca ptr, align 8
  %8 = alloca i32, align 4
  %9 = alloca ptr, align 8
  store ptr %0, ptr %4, align 8
  store ptr %1, ptr %5, align 8
  store ptr %2, ptr %6, align 8
  call void @llvm.lifetime.start.p0(i64 8, ptr %7) #10
  %10 = load ptr, ptr %6, align 8
  store ptr %10, ptr %7, align 8
  %11 = load ptr, ptr %4, align 8
  %12 = call i32 @PQresultStatus(ptr noundef %11)
  %13 = icmp eq i32 %12, 2
  br i1 %13, label %14, label %50

14:                                               ; preds = %3
  call void @llvm.lifetime.start.p0(i64 4, ptr %8) #10
  %15 = load ptr, ptr %4, align 8
  %16 = call i32 @PQntuples(ptr noundef %15)
  store i32 %16, ptr %8, align 4
  %17 = load i32, ptr %8, align 4
  %18 = icmp sgt i32 %17, 1
  br i1 %18, label %19, label %49

19:                                               ; preds = %14
  %20 = load i8, ptr getelementptr inbounds nuw (%struct.AmcheckOptions, ptr @opts, i32 0, i32 5), align 1, !range !6, !noundef !7
  %21 = trunc i8 %20 to i1
  br i1 %21, label %22, label %28

22:                                               ; preds = %19
  %23 = load i8, ptr @progress_since_last_stderr, align 1, !range !6, !noundef !7
  %24 = trunc i8 %23 to i1
  br i1 %24, label %25, label %28

25:                                               ; preds = %22
  %26 = load ptr, ptr @stderr, align 8
  %27 = call i32 (ptr, ptr, ...) @pg_fprintf(ptr noundef %26, ptr noundef @.str.68)
  br label %28

28:                                               ; preds = %25, %22, %19
  %29 = load ptr, ptr %7, align 8
  %30 = getelementptr inbounds nuw %struct.RelationInfo, ptr %29, i32 0, i32 0
  %31 = load ptr, ptr %30, align 8
  %32 = getelementptr inbounds nuw %struct.DatabaseInfo, ptr %31, i32 0, i32 0
  %33 = load ptr, ptr %32, align 8
  %34 = load ptr, ptr %7, align 8
  %35 = getelementptr inbounds nuw %struct.RelationInfo, ptr %34, i32 0, i32 3
  %36 = load ptr, ptr %35, align 8
  %37 = load ptr, ptr %7, align 8
  %38 = getelementptr inbounds nuw %struct.RelationInfo, ptr %37, i32 0, i32 4
  %39 = load ptr, ptr %38, align 8
  %40 = load i32, ptr %8, align 4
  call void (i32, i32, ptr, ...) @pg_log_generic(i32 noundef 3, i32 noundef 0, ptr noundef @.str.97, ptr noundef %33, ptr noundef %36, ptr noundef %39, i32 noundef %40)
  %41 = load i8, ptr getelementptr inbounds nuw (%struct.AmcheckOptions, ptr @opts, i32 0, i32 3), align 1, !range !6, !noundef !7
  %42 = trunc i8 %41 to i1
  br i1 %42, label %43, label %47

43:                                               ; preds = %28
  %44 = load ptr, ptr %7, align 8
  %45 = getelementptr inbounds nuw %struct.RelationInfo, ptr %44, i32 0, i32 7
  %46 = load ptr, ptr %45, align 8
  call void (i32, i32, ptr, ...) @pg_log_generic(i32 noundef 3, i32 noundef 1, ptr noundef @.str.57, ptr noundef %46)
  br label %47

47:                                               ; preds = %43, %28
  %48 = load ptr, ptr @progname, align 8
  call void (i32, i32, ptr, ...) @pg_log_generic(i32 noundef 3, i32 noundef 2, ptr noundef @.str.98, ptr noundef %48)
  store i8 0, ptr @progress_since_last_stderr, align 1
  br label %49

49:                                               ; preds = %47, %14
  call void @llvm.lifetime.end.p0(i64 4, ptr %8) #10
  br label %80

50:                                               ; preds = %3
  call void @llvm.lifetime.start.p0(i64 8, ptr %9) #10
  %51 = load ptr, ptr %5, align 8
  %52 = call ptr @PQerrorMessage(ptr noundef %51)
  %53 = call ptr @indent_lines(ptr noundef %52)
  store ptr %53, ptr %9, align 8
  store i8 0, ptr @all_checks_pass, align 1
  %54 = load ptr, ptr %7, align 8
  %55 = getelementptr inbounds nuw %struct.RelationInfo, ptr %54, i32 0, i32 0
  %56 = load ptr, ptr %55, align 8
  %57 = getelementptr inbounds nuw %struct.DatabaseInfo, ptr %56, i32 0, i32 0
  %58 = load ptr, ptr %57, align 8
  %59 = load ptr, ptr %7, align 8
  %60 = getelementptr inbounds nuw %struct.RelationInfo, ptr %59, i32 0, i32 3
  %61 = load ptr, ptr %60, align 8
  %62 = load ptr, ptr %7, align 8
  %63 = getelementptr inbounds nuw %struct.RelationInfo, ptr %62, i32 0, i32 4
  %64 = load ptr, ptr %63, align 8
  %65 = call i32 (ptr, ...) @pg_printf(ptr noundef @.str.99, ptr noundef %58, ptr noundef %61, ptr noundef %64)
  %66 = load ptr, ptr %9, align 8
  %67 = call i32 (ptr, ...) @pg_printf(ptr noundef @.str.92, ptr noundef %66)
  %68 = load i8, ptr getelementptr inbounds nuw (%struct.AmcheckOptions, ptr @opts, i32 0, i32 3), align 1, !range !6, !noundef !7
  %69 = trunc i8 %68 to i1
  br i1 %69, label %70, label %75

70:                                               ; preds = %50
  %71 = load ptr, ptr %7, align 8
  %72 = getelementptr inbounds nuw %struct.RelationInfo, ptr %71, i32 0, i32 7
  %73 = load ptr, ptr %72, align 8
  %74 = call i32 (ptr, ...) @pg_printf(ptr noundef @.str.93, ptr noundef %73)
  br label %75

75:                                               ; preds = %70, %50
  br label %76

76:                                               ; preds = %75
  %77 = load ptr, ptr %9, align 8
  call void @pg_free(ptr noundef %77)
  store ptr null, ptr %9, align 8
  br label %78

78:                                               ; preds = %76
  br label %79

79:                                               ; preds = %78
  call void @llvm.lifetime.end.p0(i64 8, ptr %9) #10
  br label %80

80:                                               ; preds = %79, %49
  br label %81

81:                                               ; preds = %80
  %82 = load ptr, ptr %7, align 8
  %83 = getelementptr inbounds nuw %struct.RelationInfo, ptr %82, i32 0, i32 7
  %84 = load ptr, ptr %83, align 8
  call void @pg_free(ptr noundef %84)
  %85 = load ptr, ptr %7, align 8
  %86 = getelementptr inbounds nuw %struct.RelationInfo, ptr %85, i32 0, i32 7
  store ptr null, ptr %86, align 8
  br label %87

87:                                               ; preds = %81
  br label %88

88:                                               ; preds = %87
  br label %89

89:                                               ; preds = %88
  %90 = load ptr, ptr %7, align 8
  %91 = getelementptr inbounds nuw %struct.RelationInfo, ptr %90, i32 0, i32 3
  %92 = load ptr, ptr %91, align 8
  call void @pg_free(ptr noundef %92)
  %93 = load ptr, ptr %7, align 8
  %94 = getelementptr inbounds nuw %struct.RelationInfo, ptr %93, i32 0, i32 3
  store ptr null, ptr %94, align 8
  br label %95

95:                                               ; preds = %89
  br label %96

96:                                               ; preds = %95
  br label %97

97:                                               ; preds = %96
  %98 = load ptr, ptr %7, align 8
  %99 = getelementptr inbounds nuw %struct.RelationInfo, ptr %98, i32 0, i32 4
  %100 = load ptr, ptr %99, align 8
  call void @pg_free(ptr noundef %100)
  %101 = load ptr, ptr %7, align 8
  %102 = getelementptr inbounds nuw %struct.RelationInfo, ptr %101, i32 0, i32 4
  store ptr null, ptr %102, align 8
  br label %103

103:                                              ; preds = %97
  br label %104

104:                                              ; preds = %103
  %105 = load ptr, ptr %4, align 8
  %106 = call zeroext i1 @should_processing_continue(ptr noundef %105)
  call void @llvm.lifetime.end.p0(i64 8, ptr %7) #10
  ret i1 %106
}