; Function Attrs: nounwind uwtable
define internal noundef zeroext i1 @verify_btree_slot_handler(ptr noundef %0, ptr noundef %1, ptr noundef captures(none) %2) #0 {
  %4 = tail call i32 @PQresultStatus(ptr noundef %0) #11
  %5 = icmp eq i32 %4, 2
  br i1 %5, label %6, label %30

6:                                                ; preds = %3
  %7 = tail call i32 @PQntuples(ptr noundef %0) #11
  %8 = icmp sgt i32 %7, 1
  br i1 %8, label %9, label %48

9:                                                ; preds = %6
  %10 = load i8, ptr getelementptr inbounds nuw (i8, ptr @opts, i64 5), align 1, !range !6, !noundef !7
  %11 = trunc nuw i8 %10 to i1
  br i1 %11, label %12, label %16

12:                                               ; preds = %9
  %.b22 = load i1, ptr @progress_since_last_stderr, align 1
  br i1 %.b22, label %13, label %16

13:                                               ; preds = %12
  %14 = load ptr, ptr @stderr, align 8
  %15 = tail call i32 (ptr, ptr, ...) @pg_fprintf(ptr noundef %14, ptr noundef nonnull @.str.68) #11
  br label %16

16:                                               ; preds = %13, %12, %9
  %17 = load ptr, ptr %2, align 8
  %18 = load ptr, ptr %17, align 8
  %19 = getelementptr inbounds nuw i8, ptr %2, i64 16
  %20 = load ptr, ptr %19, align 8
  %21 = getelementptr inbounds nuw i8, ptr %2, i64 24
  %22 = load ptr, ptr %21, align 8
  tail call void (i32, i32, ptr, ...) @pg_log_generic(i32 noundef 3, i32 noundef 0, ptr noundef nonnull @.str.97, ptr noundef %18, ptr noundef %20, ptr noundef %22, i32 noundef %7) #11
  %23 = load i8, ptr getelementptr inbounds nuw (i8, ptr @opts, i64 3), align 1, !range !6, !noundef !7
  %24 = trunc nuw i8 %23 to i1
  br i1 %24, label %25, label %28

25:                                               ; preds = %16
  %26 = getelementptr inbounds nuw i8, ptr %2, i64 40
  %27 = load ptr, ptr %26, align 8
  tail call void (i32, i32, ptr, ...) @pg_log_generic(i32 noundef 3, i32 noundef 1, ptr noundef nonnull @.str.57, ptr noundef %27) #11
  br label %28

28:                                               ; preds = %25, %16
  %29 = load ptr, ptr @progname, align 8
  tail call void (i32, i32, ptr, ...) @pg_log_generic(i32 noundef 3, i32 noundef 2, ptr noundef nonnull @.str.98, ptr noundef %29) #11
  store i1 false, ptr @progress_since_last_stderr, align 1
  br label %48

30:                                               ; preds = %3
  %31 = tail call ptr @PQerrorMessage(ptr noundef %1) #11
  %32 = tail call fastcc ptr @indent_lines(ptr noundef %31)
  store i1 true, ptr @all_checks_pass, align 1
  %33 = load ptr, ptr %2, align 8
  %34 = load ptr, ptr %33, align 8
  %35 = getelementptr inbounds nuw i8, ptr %2, i64 16
  %36 = load ptr, ptr %35, align 8
  %37 = getelementptr inbounds nuw i8, ptr %2, i64 24
  %38 = load ptr, ptr %37, align 8
  %39 = tail call i32 (ptr, ...) @pg_printf(ptr noundef nonnull @.str.99, ptr noundef %34, ptr noundef %36, ptr noundef %38) #11
  %40 = tail call i32 (ptr, ...) @pg_printf(ptr noundef nonnull @.str.92, ptr noundef %32) #11
  %41 = load i8, ptr getelementptr inbounds nuw (i8, ptr @opts, i64 3), align 1, !range !6, !noundef !7
  %42 = trunc nuw i8 %41 to i1
  br i1 %42, label %43, label %47

43:                                               ; preds = %30
  %44 = getelementptr inbounds nuw i8, ptr %2, i64 40
  %45 = load ptr, ptr %44, align 8
  %46 = tail call i32 (ptr, ...) @pg_printf(ptr noundef nonnull @.str.93, ptr noundef %45) #11
  br label %47

47:                                               ; preds = %30, %43
  tail call void @pg_free(ptr noundef %32) #11
  br label %48

48:                                               ; preds = %6, %28, %47
  %49 = getelementptr inbounds nuw i8, ptr %2, i64 40
  %50 = load ptr, ptr %49, align 8
  tail call void @pg_free(ptr noundef %50) #11
  store ptr null, ptr %49, align 8
  %51 = getelementptr inbounds nuw i8, ptr %2, i64 16
  %52 = load ptr, ptr %51, align 8
  tail call void @pg_free(ptr noundef %52) #11
  store ptr null, ptr %51, align 8
  %53 = getelementptr inbounds nuw i8, ptr %2, i64 24
  %54 = load ptr, ptr %53, align 8
  tail call void @pg_free(ptr noundef %54) #11
  store ptr null, ptr %53, align 8
  %55 = tail call i32 @PQresultStatus(ptr noundef %0) #11
  switch i32 %55, label %65 [
    i32 12, label %should_processing_continue.exit
    i32 11, label %should_processing_continue.exit
    i32 10, label %should_processing_continue.exit
    i32 7, label %56
    i32 5, label %should_processing_continue.exit
    i32 0, label %should_processing_continue.exit
    i32 3, label %should_processing_continue.exit
    i32 4, label %should_processing_continue.exit
    i32 8, label %should_processing_continue.exit
    i32 9, label %should_processing_continue.exit
  ]

56:                                               ; preds = %48
  %57 = tail call ptr @PQresultErrorField(ptr noundef %0, i32 noundef 86) #11
  %58 = icmp eq ptr %57, null
  br i1 %58, label %should_processing_continue.exit, label %59

59:                                               ; preds = %56
  %60 = tail call i32 @strcmp(ptr noundef nonnull dereferenceable(1) %57, ptr noundef nonnull dereferenceable(6) @.str.95) #15
  %61 = icmp eq i32 %60, 0
  br i1 %61, label %should_processing_continue.exit, label %62

62:                                               ; preds = %59
  %63 = tail call i32 @strcmp(ptr noundef nonnull dereferenceable(1) %57, ptr noundef nonnull dereferenceable(6) @.str.96) #15
  %64 = icmp eq i32 %63, 0
  br i1 %64, label %should_processing_continue.exit, label %65

65:                                               ; preds = %62, %48
  br label %should_processing_continue.exit

should_processing_continue.exit:                  ; preds = %48, %48, %48, %48, %48, %48, %48, %48, %48, %56, %59, %62, %65
  %.0.i = phi i1 [ true, %65 ], [ false, %56 ], [ false, %59 ], [ false, %62 ], [ false, %48 ], [ false, %48 ], [ false, %48 ], [ false, %48 ], [ false, %48 ], [ false, %48 ], [ false, %48 ], [ false, %48 ], [ false, %48 ]
  ret i1 %.0.i
}